target datalayout = "e-m:e-p270:32:32-p271:32:32-p272:64:64-i64:64-i128:128-f80:128-n8:16:32:64-S128"
target triple = "x86_64-pc-linux-gnu"

%struct.WHIRLPOOL_CTX = type { %union.anon, [64 x i8], i32, [4 x i64] }
%union.anon = type { [8 x double] }

; Function Attrs: nounwind uwtable
define i32 @WHIRLPOOL_Final(ptr noundef %0, ptr noundef %1) #0 {
  %3 = alloca i32, align 4
  %4 = alloca ptr, align 8
  %5 = alloca ptr, align 8
  %6 = alloca i32, align 4
  %7 = alloca i32, align 4
  %8 = alloca i64, align 8
  %9 = alloca i64, align 8
  %10 = alloca i64, align 8
  %11 = alloca ptr, align 8
  %12 = alloca i32, align 4
  store ptr %0, ptr %4, align 8, !tbaa !9
  store ptr %1, ptr %5, align 8, !tbaa !3
  call void @llvm.lifetime.start.p0(i64 4, ptr %6) #5
  %13 = load ptr, ptr %5, align 8, !tbaa !3
  %14 = getelementptr inbounds nuw %struct.WHIRLPOOL_CTX, ptr %13, i32 0, i32 2
  %15 = load i32, ptr %14, align 8, !tbaa !13
  store i32 %15, ptr %6, align 4, !tbaa !16
  call void @llvm.lifetime.start.p0(i64 4, ptr %7) #5
  %16 = load i32, ptr %6, align 4, !tbaa !16
  %17 = udiv i32 %16, 8
  store i32 %17, ptr %7, align 4, !tbaa !16
  call void @llvm.lifetime.start.p0(i64 8, ptr %8) #5
  call void @llvm.lifetime.start.p0(i64 8, ptr %9) #5
  call void @llvm.lifetime.start.p0(i64 8, ptr %10) #5
  call void @llvm.lifetime.start.p0(i64 8, ptr %11) #5
  %18 = load i32, ptr %6, align 4, !tbaa !16
  %19 = urem i32 %18, 8
  store i32 %19, ptr %6, align 4, !tbaa !16
  %20 = load i32, ptr %6, align 4, !tbaa !16
  %21 = icmp ne i32 %20, 0
  br i1 %21, label %22, label %34

22:                                               ; preds = %2
  %23 = load i32, ptr %6, align 4, !tbaa !16
  %24 = ashr i32 128, %23
  %25 = load ptr, ptr %5, align 8, !tbaa !3
  %26 = getelementptr inbounds nuw %struct.WHIRLPOOL_CTX, ptr %25, i32 0, i32 1
  %27 = load i32, ptr %7, align 4, !tbaa !16
  %28 = zext i32 %27 to i64
  %29 = getelementptr inbounds nuw [64 x i8], ptr %26, i64 0, i64 %28
  %30 = load i8, ptr %29, align 1, !tbaa !19
  %31 = zext i8 %30 to i32
  %32 = or i32 %31, %24
  %33 = trunc i32 %32 to i8
  store i8 %33, ptr %29, align 1, !tbaa !19
  br label %40

34:                                               ; preds = %2
  %35 = load ptr, ptr %5, align 8, !tbaa !3
  %36 = getelementptr inbounds nuw %struct.WHIRLPOOL_CTX, ptr %35, i32 0, i32 1
  %37 = load i32, ptr %7, align 4, !tbaa !16
  %38 = zext i32 %37 to i64
  %39 = getelementptr inbounds nuw [64 x i8], ptr %36, i64 0, i64 %38
  store i8 -128, ptr %39, align 1, !tbaa !19
  br label %40

40:                                               ; preds = %34, %22
  %41 = load i32, ptr %7, align 4, !tbaa !16
  %42 = add i32 %41, 1
  store i32 %42, ptr %7, align 4, !tbaa !16
  %43 = load i32, ptr %7, align 4, !tbaa !16
  %44 = icmp ugt i32 %43, 32
  br i1 %44, label %45, label %62

45:                                               ; preds = %40
  %46 = load i32, ptr %7, align 4, !tbaa !16
  %47 = icmp ult i32 %46, 64
  br i1 %47, label %48, label %57

48:                                               ; preds = %45
  %49 = load ptr, ptr %5, align 8, !tbaa !3
  %50 = getelementptr inbounds nuw %struct.WHIRLPOOL_CTX, ptr %49, i32 0, i32 1
  %51 = load i32, ptr %7, align 4, !tbaa !16
  %52 = zext i32 %51 to i64
  %53 = getelementptr inbounds nuw [64 x i8], ptr %50, i64 0, i64 %52
  %54 = load i32, ptr %7, align 4, !tbaa !16
  %55 = sub i32 64, %54
  %56 = zext i32 %55 to i64
  call void @llvm.memset.p0.i64(ptr align 1 %53, i8 0, i64 %56, i1 false)
  br label %57

57:                                               ; preds = %48, %45
  %58 = load ptr, ptr %5, align 8, !tbaa !3
  %59 = load ptr, ptr %5, align 8, !tbaa !3
  %60 = getelementptr inbounds nuw %struct.WHIRLPOOL_CTX, ptr %59, i32 0, i32 1
  %61 = getelementptr inbounds [64 x i8], ptr %60, i64 0, i64 0
  call void @whirlpool_block(ptr noundef %58, ptr noundef %61, i64 noundef 1)
  store i32 0, ptr %7, align 4, !tbaa !16
  br label %62

62:                                               ; preds = %57, %40
  %63 = load i32, ptr %7, align 4, !tbaa !16
  %64 = icmp ult i32 %63, 32
  br i1 %64, label %65, label %74

65:                                               ; preds = %62
  %66 = load ptr, ptr %5, align 8, !tbaa !3
  %67 = getelementptr inbounds nuw %struct.WHIRLPOOL_CTX, ptr %66, i32 0, i32 1
  %68 = load i32, ptr %7, align 4, !tbaa !16
  %69 = zext i32 %68 to i64
  %70 = getelementptr inbounds nuw [64 x i8], ptr %67, i64 0, i64 %69
  %71 = load i32, ptr %7, align 4, !tbaa !16
  %72 = sub i32 32, %71
  %73 = zext i32 %72 to i64
  call void @llvm.memset.p0.i64(ptr align 1 %70, i8 0, i64 %73, i1 false)
  br label %74

74:                                               ; preds = %65, %62
  %75 = load ptr, ptr %5, align 8, !tbaa !3
  %76 = getelementptr inbounds nuw %struct.WHIRLPOOL_CTX, ptr %75, i32 0, i32 1
  %77 = getelementptr inbounds [64 x i8], ptr %76, i64 0, i64 63
  store ptr %77, ptr %11, align 8, !tbaa !9
  store i64 0, ptr %8, align 8, !tbaa !7
  br label %78

78:                                               ; preds = %102, %74
  %79 = load i64, ptr %8, align 8, !tbaa !7
  %80 = icmp ult i64 %79, 4
  br i1 %80, label %81, label %105

81:                                               ; preds = %78
  %82 = load ptr, ptr %5, align 8, !tbaa !3
  %83 = getelementptr inbounds nuw %struct.WHIRLPOOL_CTX, ptr %82, i32 0, i32 3
  %84 = load i64, ptr %8, align 8, !tbaa !7
  %85 = getelementptr inbounds nuw [4 x i64], ptr %83, i64 0, i64 %84
  %86 = load i64, ptr %85, align 8, !tbaa !7
  store i64 %86, ptr %10, align 8, !tbaa !7
  store i64 0, ptr %9, align 8, !tbaa !7
  br label %87

87:                                               ; preds = %96, %81
  %88 = load i64, ptr %9, align 8, !tbaa !7
  %89 = icmp ult i64 %88, 8
  br i1 %89, label %90, label %101

90:                                               ; preds = %87
  %91 = load i64, ptr %10, align 8, !tbaa !7
  %92 = and i64 %91, 255
  %93 = trunc i64 %92 to i8
  %94 = load ptr, ptr %11, align 8, !tbaa !9
  %95 = getelementptr inbounds i8, ptr %94, i32 -1
  store ptr %95, ptr %11, align 8, !tbaa !9
  store i8 %93, ptr %94, align 1, !tbaa !19
  br label %96

96:                                               ; preds = %90
  %97 = load i64, ptr %9, align 8, !tbaa !7
  %98 = add i64 %97, 1
  store i64 %98, ptr %9, align 8, !tbaa !7
  %99 = load i64, ptr %10, align 8, !tbaa !7
  %100 = lshr i64 %99, 8
  store i64 %100, ptr %10, align 8, !tbaa !7
  br label %87, !llvm.loop !21

101:                                              ; preds = %87
  br label %102

102:                                              ; preds = %101
  %103 = load i64, ptr %8, align 8, !tbaa !7
  %104 = add i64 %103, 1
  store i64 %104, ptr %8, align 8, !tbaa !7
  br label %78, !llvm.loop !22

105:                                              ; preds = %78
  %106 = load ptr, ptr %5, align 8, !tbaa !3
  %107 = load ptr, ptr %5, align 8, !tbaa !3
  %108 = getelementptr inbounds nuw %struct.WHIRLPOOL_CTX, ptr %107, i32 0, i32 1
  %109 = getelementptr inbounds [64 x i8], ptr %108, i64 0, i64 0
  call void @whirlpool_block(ptr noundef %106, ptr noundef %109, i64 noundef 1)
  %110 = load ptr, ptr %4, align 8, !tbaa !9
  %111 = icmp ne ptr %110, null
  br i1 %111, label %112, label %118

112:                                              ; preds = %105
  %113 = load ptr, ptr %4, align 8, !tbaa !9
  %114 = load ptr, ptr %5, align 8, !tbaa !3
  %115 = getelementptr inbounds nuw %struct.WHIRLPOOL_CTX, ptr %114, i32 0, i32 0
  %116 = getelementptr inbounds [64 x i8], ptr %115, i64 0, i64 0
  call void @llvm.memcpy.p0.p0.i64(ptr align 1 %113, ptr align 8 %116, i64 64, i1 false)
  %117 = load ptr, ptr %5, align 8, !tbaa !3
  call void @OPENSSL_cleanse(ptr noundef %117, i64 noundef 168)
  store i32 1, ptr %3, align 4
  store i32 1, ptr %12, align 4
  br label %119

118:                                              ; preds = %105
  store i32 0, ptr %3, align 4
  store i32 1, ptr %12, align 4
  br label %119

119:                                              ; preds = %118, %112
  call void @llvm.lifetime.end.p0(i64 8, ptr %11) #5
  call void @llvm.lifetime.end.p0(i64 8, ptr %10) #5
  call void @llvm.lifetime.end.p0(i64 8, ptr %9) #5
  call void @llvm.lifetime.end.p0(i64 8, ptr %8) #5
  call void @llvm.lifetime.end.p0(i64 4, ptr %7) #5
  call void @llvm.lifetime.end.p0(i64 4, ptr %6) #5
  %120 = load i32, ptr %3, align 4
  ret i32 %120
}