; Function Attrs: nounwind uwtable
define range(i32 0, 2) i32 @WHIRLPOOL_Final(ptr noundef writeonly captures(address_is_null) %0, ptr noundef %1) local_unnamed_addr #2 {
  %3 = getelementptr inbounds nuw i8, ptr %1, i64 128
  %4 = load i32, ptr %3, align 8, !tbaa !5
  %5 = lshr i32 %4, 3
  %6 = and i32 %4, 7
  %.not = icmp eq i32 %6, 0
  br i1 %.not, label %15, label %7

7:                                                ; preds = %2
  %8 = lshr exact i32 128, %6
  %9 = getelementptr inbounds nuw i8, ptr %1, i64 64
  %10 = zext nneg i32 %5 to i64
  %11 = getelementptr inbounds nuw [64 x i8], ptr %9, i64 0, i64 %10
  %12 = load i8, ptr %11, align 1, !tbaa !14
  %13 = trunc nuw nsw i32 %8 to i8
  %14 = or i8 %12, %13
  store i8 %14, ptr %11, align 1, !tbaa !14
  br label %19

15:                                               ; preds = %2
  %16 = getelementptr inbounds nuw i8, ptr %1, i64 64
  %17 = zext nneg i32 %5 to i64
  %18 = getelementptr inbounds nuw [64 x i8], ptr %16, i64 0, i64 %17
  store i8 -128, ptr %18, align 1, !tbaa !14
  br label %19

19:                                               ; preds = %15, %7
  %20 = add nuw nsw i32 %5, 1
  %21 = icmp ugt i32 %4, 255
  br i1 %21, label %22, label %31

22:                                               ; preds = %19
  %23 = icmp ult i32 %4, 504
  br i1 %23, label %24, label %.thread

24:                                               ; preds = %22
  %25 = getelementptr inbounds nuw i8, ptr %1, i64 64
  %26 = zext nneg i32 %20 to i64
  %27 = getelementptr inbounds nuw [64 x i8], ptr %25, i64 0, i64 %26
  %28 = sub nuw nsw i32 63, %5
  %29 = zext nneg i32 %28 to i64
  tail call void @llvm.memset.p0.i64(ptr nonnull align 1 %27, i8 0, i64 %29, i1 false)
  br label %.thread

.thread:                                          ; preds = %22, %24
  %30 = getelementptr inbounds nuw i8, ptr %1, i64 64
  tail call void @whirlpool_block(ptr noundef nonnull %1, ptr noundef nonnull %30, i64 noundef 1) #6
  br label %33

31:                                               ; preds = %19
  %32 = icmp samesign ult i32 %4, 248
  br i1 %32, label %33, label %39

33:                                               ; preds = %.thread, %31
  %.04048 = phi i32 [ 0, %.thread ], [ %20, %31 ]
  %34 = getelementptr inbounds nuw i8, ptr %1, i64 64
  %35 = zext nneg i32 %.04048 to i64
  %36 = getelementptr inbounds nuw [64 x i8], ptr %34, i64 0, i64 %35
  %37 = sub nuw nsw i32 32, %.04048
  %38 = zext nneg i32 %37 to i64
  tail call void @llvm.memset.p0.i64(ptr nonnull align 1 %36, i8 0, i64 %38, i1 false)
  br label %39

39:                                               ; preds = %33, %31
  %40 = getelementptr inbounds nuw i8, ptr %1, i64 127
  %41 = getelementptr inbounds nuw i8, ptr %1, i64 136
  br label %42

42:                                               ; preds = %39, %50
  %.053 = phi ptr [ %40, %39 ], [ %47, %50 ]
  %.03952 = phi i64 [ 0, %39 ], [ %51, %50 ]
  %43 = getelementptr inbounds nuw [4 x i64], ptr %41, i64 0, i64 %.03952
  %44 = load i64, ptr %43, align 8, !tbaa !10
  br label %45

45:                                               ; preds = %42, %45
  %.151 = phi ptr [ %.053, %42 ], [ %47, %45 ]
  %.03750 = phi i64 [ %44, %42 ], [ %49, %45 ]
  %.03849 = phi i64 [ 0, %42 ], [ %48, %45 ]
  %46 = trunc i64 %.03750 to i8
  %47 = getelementptr inbounds i8, ptr %.151, i64 -1
  store i8 %46, ptr %.151, align 1, !tbaa !14
  %48 = add nuw nsw i64 %.03849, 1
  %49 = lshr i64 %.03750, 8
  %exitcond.not = icmp eq i64 %48, 8
  br i1 %exitcond.not, label %50, label %45, !llvm.loop !15

50:                                               ; preds = %45
  %51 = add nuw nsw i64 %.03952, 1
  %exitcond54.not = icmp eq i64 %51, 4
  br i1 %exitcond54.not, label %52, label %42, !llvm.loop !16

52:                                               ; preds = %50
  %53 = getelementptr inbounds nuw i8, ptr %1, i64 64
  tail call void @whirlpool_block(ptr noundef %1, ptr noundef nonnull %53, i64 noundef 1) #6
  %.not46 = icmp eq ptr %0, null
  br i1 %.not46, label %55, label %54

54:                                               ; preds = %52
  tail call void @llvm.memcpy.p0.p0.i64(ptr noundef nonnull align 1 dereferenceable(64) %0, ptr noundef nonnull align 8 dereferenceable(64) %1, i64 64, i1 false)
  tail call void @OPENSSL_cleanse(ptr noundef nonnull %1, i64 noundef 168) #6
  br label %55

55:                                               ; preds = %52, %54
  %.041 = phi i32 [ 1, %54 ], [ 0, %52 ]
  ret i32 %.041
}